; Function Attrs: mustprogress nofree norecurse nosync nounwind willreturn memory(read, argmem: readwrite, inaccessiblemem: none) uwtable
define noundef zeroext i1 @_ZN5draco26SequentialAttributeDecoder4InitEPNS_17PointCloudDecoderEi(ptr noundef nonnull writeonly align 8 captures(none) dereferenceable(40) initializes((8, 28)) %0, ptr noundef %1, i32 noundef %2) unnamed_addr #4 align 2 {
  %4 = getelementptr inbounds nuw i8, ptr %0, i64 8
  store ptr %1, ptr %4, align 8, !tbaa !20
  %5 = getelementptr inbounds nuw i8, ptr %1, i64 8
  %6 = load ptr, ptr %5, align 8, !tbaa !21
  %7 = getelementptr inbounds nuw i8, ptr %6, i64 16
  %8 = sext i32 %2 to i64
  %9 = load ptr, ptr %7, align 8, !tbaa !36
  %10 = getelementptr inbounds nuw %"class.std::unique_ptr", ptr %9, i64 %8
  %11 = load ptr, ptr %10, align 8, !tbaa !39
  %12 = getelementptr inbounds nuw i8, ptr %0, i64 16
  store ptr %11, ptr %12, align 8, !tbaa !40
  %13 = getelementptr inbounds nuw i8, ptr %0, i64 24
  store i32 %2, ptr %13, align 8, !tbaa !6
  ret i1 true
}